target datalayout = "e-m:e-p270:32:32-p271:32:32-p272:64:64-i64:64-i128:128-f80:128-n8:16:32:64-S128"
target triple = "x86_64-pc-linux-gnu"

%struct.H5B_class_t = type { i32, i64, ptr, ptr, ptr, ptr, ptr, ptr, i8, i8, i32, ptr, ptr, ptr, ptr }
%struct.H5O_stab_t = type { i64, i64 }
%struct.H5O_loc_t = type { ptr, i64, i8 }
%struct.H5G_link_table_t = type { i64, ptr }
%struct.H5G_bt_it_it_t = type { ptr, i64, ptr, ptr, ptr }
%struct.H5G_bt_it_bt_t = type { i64, ptr, ptr }

@H5B_SNODE = external global [1 x %struct.H5B_class_t], align 16
@.str = private unnamed_addr constant [101 x i8] c"generated/home/dtcxzyw/WorkSpace/Projects/compilers/llvm-opt-benchmark/bench/hdf5/hdf5/src/H5Gstab.c\00", align 1
@H5E_SYM_g = external global i64, align 8
@H5E_PROTECT_g = external global i64, align 8
@.str.3 = private unnamed_addr constant [36 x i8] c"unable to protect symbol table heap\00", align 1
@.str.6 = private unnamed_addr constant [38 x i8] c"unable to unprotect symbol table heap\00", align 1
@__func__.H5G__stab_iterate = private unnamed_addr constant [18 x i8] c"H5G__stab_iterate\00", align 1
@H5E_NOTFOUND_g = external global i64, align 8
@.str.16 = private unnamed_addr constant [39 x i8] c"unable to determine local heap address\00", align 1
@H5E_CANTNEXT_g = external global i64, align 8
@.str.17 = private unnamed_addr constant [26 x i8] c"iteration operator failed\00", align 1
@H5E_ARGS_g = external global i64, align 8
@H5E_BADVALUE_g = external global i64, align 8
@.str.18 = private unnamed_addr constant [24 x i8] c"invalid index specified\00", align 1
@.str.19 = private unnamed_addr constant [27 x i8] c"unable to build link table\00", align 1
@.str.20 = private unnamed_addr constant [19 x i8] c"index out of bound\00", align 1
@H5E_CANTSORT_g = external global i64, align 8
@.str.21 = private unnamed_addr constant [28 x i8] c"error sorting link messages\00", align 1
@H5E_CANTFREE_g = external global i64, align 8
@.str.22 = private unnamed_addr constant [29 x i8] c"unable to release link table\00", align 1

; Function Attrs: nounwind uwtable
define i32 @H5G__stab_iterate(ptr noundef %0, i32 noundef %1, i64 noundef %2, ptr noundef %3, ptr noundef %4, ptr noundef %5) #0 {
  %7 = alloca ptr, align 8
  %8 = alloca i32, align 4
  %9 = alloca i64, align 8
  %10 = alloca ptr, align 8
  %11 = alloca ptr, align 8
  %12 = alloca ptr, align 8
  %13 = alloca ptr, align 8
  %14 = alloca %struct.H5O_stab_t, align 8
  %15 = alloca %struct.H5G_link_table_t, align 8
  %16 = alloca i32, align 4
  %17 = alloca i8, align 1
  %18 = alloca %struct.H5G_bt_it_it_t, align 8
  %19 = alloca %struct.H5G_bt_it_bt_t, align 8
  store ptr %0, ptr %7, align 8
  store i32 %1, ptr %8, align 4
  store i64 %2, ptr %9, align 8
  store ptr %3, ptr %10, align 8
  store ptr %4, ptr %11, align 8
  store ptr %5, ptr %12, align 8
  store ptr null, ptr %13, align 8
  call void @llvm.memset.p0.i64(ptr align 8 %15, i8 0, i64 16, i1 false)
  store i32 -1, ptr %16, align 4
  store i8 0, ptr %17, align 1
  %20 = load ptr, ptr %7, align 8
  %21 = call ptr @H5O_msg_read(ptr noundef %20, i32 noundef 17, ptr noundef %14)
  %22 = icmp eq ptr null, %21
  br i1 %22, label %23, label %38

23:                                               ; preds = %6
  br label %24

24:                                               ; preds = %23
  br label %25

25:                                               ; preds = %24
  br label %26

26:                                               ; preds = %25
  %27 = load i64, ptr @H5E_SYM_g, align 8
  %28 = load i64, ptr @H5E_NOTFOUND_g, align 8
  %29 = call i32 (ptr, ptr, i32, i64, i64, ptr, ...) @H5E_printf_stack(ptr noundef @.str, ptr noundef @__func__.H5G__stab_iterate, i32 noundef 485, i64 noundef %27, i64 noundef %28, ptr noundef @.str.16)
  br label %30

30:                                               ; preds = %26
  store i8 1, ptr %17, align 1
  %31 = load i8, ptr %17, align 1
  %32 = trunc i8 %31 to i1
  %33 = zext i1 %32 to i8
  store i8 %33, ptr %17, align 1
  br label %34

34:                                               ; preds = %30
  br label %35

35:                                               ; preds = %34
  store i32 -1, ptr %16, align 4
  br label %196

36:                                               ; No predecessors!
  br label %37

37:                                               ; preds = %36
  br label %38

38:                                               ; preds = %37, %6
  %39 = load ptr, ptr %7, align 8
  %40 = getelementptr inbounds %struct.H5O_loc_t, ptr %39, i32 0, i32 0
  %41 = load ptr, ptr %40, align 8
  %42 = getelementptr inbounds %struct.H5O_stab_t, ptr %14, i32 0, i32 1
  %43 = load i64, ptr %42, align 8
  %44 = call ptr @H5HL_protect(ptr noundef %41, i64 noundef %43, i32 noundef 128)
  store ptr %44, ptr %13, align 8
  %45 = icmp eq ptr null, %44
  br i1 %45, label %46, label %61

46:                                               ; preds = %38
  br label %47

47:                                               ; preds = %46
  br label %48

48:                                               ; preds = %47
  br label %49

49:                                               ; preds = %48
  %50 = load i64, ptr @H5E_SYM_g, align 8
  %51 = load i64, ptr @H5E_PROTECT_g, align 8
  %52 = call i32 (ptr, ptr, i32, i64, i64, ptr, ...) @H5E_printf_stack(ptr noundef @.str, ptr noundef @__func__.H5G__stab_iterate, i32 noundef 489, i64 noundef %50, i64 noundef %51, ptr noundef @.str.3)
  br label %53

53:                                               ; preds = %49
  store i8 1, ptr %17, align 1
  %54 = load i8, ptr %17, align 1
  %55 = trunc i8 %54 to i1
  %56 = zext i1 %55 to i8
  store i8 %56, ptr %17, align 1
  br label %57

57:                                               ; preds = %53
  br label %58

58:                                               ; preds = %57
  store i32 -1, ptr %16, align 4
  br label %196

59:                                               ; No predecessors!
  br label %60

60:                                               ; preds = %59
  br label %61

61:                                               ; preds = %60, %38
  %62 = load i32, ptr %8, align 4
  %63 = icmp ne i32 %62, 1
  br i1 %63, label %64, label %112

64:                                               ; preds = %61
  %65 = load ptr, ptr %13, align 8
  %66 = getelementptr inbounds %struct.H5G_bt_it_it_t, ptr %18, i32 0, i32 0
  store ptr %65, ptr %66, align 8
  %67 = load i64, ptr %9, align 8
  %68 = getelementptr inbounds %struct.H5G_bt_it_it_t, ptr %18, i32 0, i32 1
  store i64 %67, ptr %68, align 8
  %69 = load ptr, ptr %10, align 8
  %70 = getelementptr inbounds %struct.H5G_bt_it_it_t, ptr %18, i32 0, i32 4
  store ptr %69, ptr %70, align 8
  %71 = load ptr, ptr %11, align 8
  %72 = getelementptr inbounds %struct.H5G_bt_it_it_t, ptr %18, i32 0, i32 2
  store ptr %71, ptr %72, align 8
  %73 = load ptr, ptr %12, align 8
  %74 = getelementptr inbounds %struct.H5G_bt_it_it_t, ptr %18, i32 0, i32 3
  store ptr %73, ptr %74, align 8
  %75 = load ptr, ptr %7, align 8
  %76 = getelementptr inbounds %struct.H5O_loc_t, ptr %75, i32 0, i32 0
  %77 = load ptr, ptr %76, align 8
  %78 = getelementptr inbounds %struct.H5O_stab_t, ptr %14, i32 0, i32 0
  %79 = load i64, ptr %78, align 8
  %80 = call i32 @H5B_iterate(ptr noundef %77, ptr noundef @H5B_SNODE, i64 noundef %79, ptr noundef @H5G__node_iterate, ptr noundef %18)
  store i32 %80, ptr %16, align 4
  %81 = icmp slt i32 %80, 0
  br i1 %81, label %82, label %88

82:                                               ; preds = %64
  br label %83

83:                                               ; preds = %82
  %84 = load i64, ptr @H5E_SYM_g, align 8
  %85 = load i64, ptr @H5E_CANTNEXT_g, align 8
  %86 = call i32 (ptr, ptr, i32, i64, i64, ptr, ...) @H5E_printf_stack(ptr noundef @.str, ptr noundef @__func__.H5G__stab_iterate, i32 noundef 505, i64 noundef %84, i64 noundef %85, ptr noundef @.str.17)
  br label %87

87:                                               ; preds = %83
  br label %88

88:                                               ; preds = %87, %64
  %89 = load i64, ptr %9, align 8
  %90 = icmp ugt i64 %89, 0
  br i1 %90, label %91, label %111

91:                                               ; preds = %88
  %92 = load i64, ptr %9, align 8
  %93 = load ptr, ptr %10, align 8
  %94 = load i64, ptr %93, align 8
  %95 = icmp uge i64 %92, %94
  br i1 %95, label %96, label %111

96:                                               ; preds = %91
  br label %97

97:                                               ; preds = %96
  br label %98

98:                                               ; preds = %97
  br label %99

99:                                               ; preds = %98
  %100 = load i64, ptr @H5E_ARGS_g, align 8
  %101 = load i64, ptr @H5E_BADVALUE_g, align 8
  %102 = call i32 (ptr, ptr, i32, i64, i64, ptr, ...) @H5E_printf_stack(ptr noundef @.str, ptr noundef @__func__.H5G__stab_iterate, i32 noundef 510, i64 noundef %100, i64 noundef %101, ptr noundef @.str.18)
  br label %103

103:                                              ; preds = %99
  store i8 1, ptr %17, align 1
  %104 = load i8, ptr %17, align 1
  %105 = trunc i8 %104 to i1
  %106 = zext i1 %105 to i8
  store i8 %106, ptr %17, align 1
  br label %107

107:                                              ; preds = %103
  br label %108

108:                                              ; preds = %107
  store i32 -1, ptr %16, align 4
  br label %196

109:                                              ; No predecessors!
  br label %110

110:                                              ; preds = %109
  br label %111

111:                                              ; preds = %110, %91, %88
  br label %195

112:                                              ; preds = %61
  %113 = getelementptr inbounds %struct.H5G_bt_it_bt_t, ptr %19, i32 0, i32 0
  store i64 0, ptr %113, align 8
  %114 = load ptr, ptr %13, align 8
  %115 = getelementptr inbounds %struct.H5G_bt_it_bt_t, ptr %19, i32 0, i32 1
  store ptr %114, ptr %115, align 8
  %116 = getelementptr inbounds %struct.H5G_bt_it_bt_t, ptr %19, i32 0, i32 2
  store ptr %15, ptr %116, align 8
  %117 = load ptr, ptr %7, align 8
  %118 = getelementptr inbounds %struct.H5O_loc_t, ptr %117, i32 0, i32 0
  %119 = load ptr, ptr %118, align 8
  %120 = getelementptr inbounds %struct.H5O_stab_t, ptr %14, i32 0, i32 0
  %121 = load i64, ptr %120, align 8
  %122 = call i32 @H5B_iterate(ptr noundef %119, ptr noundef @H5B_SNODE, i64 noundef %121, ptr noundef @H5G__node_build_table, ptr noundef %19)
  %123 = icmp slt i32 %122, 0
  br i1 %123, label %124, label %139

124:                                              ; preds = %112
  br label %125

125:                                              ; preds = %124
  br label %126

126:                                              ; preds = %125
  br label %127

127:                                              ; preds = %126
  %128 = load i64, ptr @H5E_SYM_g, align 8
  %129 = load i64, ptr @H5E_NOTFOUND_g, align 8
  %130 = call i32 (ptr, ptr, i32, i64, i64, ptr, ...) @H5E_printf_stack(ptr noundef @.str, ptr noundef @__func__.H5G__stab_iterate, i32 noundef 522, i64 noundef %128, i64 noundef %129, ptr noundef @.str.19)
  br label %131

131:                                              ; preds = %127
  store i8 1, ptr %17, align 1
  %132 = load i8, ptr %17, align 1
  %133 = trunc i8 %132 to i1
  %134 = zext i1 %133 to i8
  store i8 %134, ptr %17, align 1
  br label %135

135:                                              ; preds = %131
  br label %136

136:                                              ; preds = %135
  store i32 -1, ptr %16, align 4
  br label %196

137:                                              ; No predecessors!
  br label %138

138:                                              ; preds = %137
  br label %139

139:                                              ; preds = %138, %112
  %140 = load i64, ptr %9, align 8
  %141 = icmp ugt i64 %140, 0
  br i1 %141, label %142, label %162

142:                                              ; preds = %139
  %143 = load i64, ptr %9, align 8
  %144 = getelementptr inbounds %struct.H5G_link_table_t, ptr %15, i32 0, i32 0
  %145 = load i64, ptr %144, align 8
  %146 = icmp uge i64 %143, %145
  br i1 %146, label %147, label %162

147:                                              ; preds = %142
  br label %148

148:                                              ; preds = %147
  br label %149

149:                                              ; preds = %148
  br label %150

150:                                              ; preds = %149
  %151 = load i64, ptr @H5E_ARGS_g, align 8
  %152 = load i64, ptr @H5E_BADVALUE_g, align 8
  %153 = call i32 (ptr, ptr, i32, i64, i64, ptr, ...) @H5E_printf_stack(ptr noundef @.str, ptr noundef @__func__.H5G__stab_iterate, i32 noundef 526, i64 noundef %151, i64 noundef %152, ptr noundef @.str.20)
  br label %154

154:                                              ; preds = %150
  store i8 1, ptr %17, align 1
  %155 = load i8, ptr %17, align 1
  %156 = trunc i8 %155 to i1
  %157 = zext i1 %156 to i8
  store i8 %157, ptr %17, align 1
  br label %158

158:                                              ; preds = %154
  br label %159

159:                                              ; preds = %158
  store i32 -1, ptr %16, align 4
  br label %196

160:                                              ; No predecessors!
  br label %161

161:                                              ; preds = %160
  br label %162

162:                                              ; preds = %161, %142, %139
  %163 = load i32, ptr %8, align 4
  %164 = call i32 @H5G__link_sort_table(ptr noundef %15, i32 noundef 0, i32 noundef %163)
  %165 = icmp slt i32 %164, 0
  br i1 %165, label %166, label %181

166:                                              ; preds = %162
  br label %167

167:                                              ; preds = %166
  br label %168

168:                                              ; preds = %167
  br label %169

169:                                              ; preds = %168
  %170 = load i64, ptr @H5E_SYM_g, align 8
  %171 = load i64, ptr @H5E_CANTSORT_g, align 8
  %172 = call i32 (ptr, ptr, i32, i64, i64, ptr, ...) @H5E_printf_stack(ptr noundef @.str, ptr noundef @__func__.H5G__stab_iterate, i32 noundef 530, i64 noundef %170, i64 noundef %171, ptr noundef @.str.21)
  br label %173

173:                                              ; preds = %169
  store i8 1, ptr %17, align 1
  %174 = load i8, ptr %17, align 1
  %175 = trunc i8 %174 to i1
  %176 = zext i1 %175 to i8
  store i8 %176, ptr %17, align 1
  br label %177

177:                                              ; preds = %173
  br label %178

178:                                              ; preds = %177
  store i32 -1, ptr %16, align 4
  br label %196

179:                                              ; No predecessors!
  br label %180

180:                                              ; preds = %179
  br label %181

181:                                              ; preds = %180, %162
  %182 = load i64, ptr %9, align 8
  %183 = load ptr, ptr %10, align 8
  %184 = load ptr, ptr %11, align 8
  %185 = load ptr, ptr %12, align 8
  %186 = call i32 @H5G__link_iterate_table(ptr noundef %15, i64 noundef %182, ptr noundef %183, ptr noundef %184, ptr noundef %185)
  store i32 %186, ptr %16, align 4
  %187 = icmp slt i32 %186, 0
  br i1 %187, label %188, label %194

188:                                              ; preds = %181
  br label %189

189:                                              ; preds = %188
  %190 = load i64, ptr @H5E_SYM_g, align 8
  %191 = load i64, ptr @H5E_CANTNEXT_g, align 8
  %192 = call i32 (ptr, ptr, i32, i64, i64, ptr, ...) @H5E_printf_stack(ptr noundef @.str, ptr noundef @__func__.H5G__stab_iterate, i32 noundef 534, i64 noundef %190, i64 noundef %191, ptr noundef @.str.17)
  br label %193

193:                                              ; preds = %189
  br label %194

194:                                              ; preds = %193, %181
  br label %195

195:                                              ; preds = %194, %111
  br label %196

196:                                              ; preds = %195, %178, %159, %136, %108, %58, %35
  %197 = load ptr, ptr %13, align 8
  %198 = icmp ne ptr %197, null
  br i1 %198, label %199, label %216

199:                                              ; preds = %196
  %200 = load ptr, ptr %13, align 8
  %201 = call i32 @H5HL_unprotect(ptr noundef %200)
  %202 = icmp slt i32 %201, 0
  br i1 %202, label %203, label %216

203:                                              ; preds = %199
  br label %204

204:                                              ; preds = %203
  br label %205

205:                                              ; preds = %204
  br label %206

206:                                              ; preds = %205
  %207 = load i64, ptr @H5E_SYM_g, align 8
  %208 = load i64, ptr @H5E_PROTECT_g, align 8
  %209 = call i32 (ptr, ptr, i32, i64, i64, ptr, ...) @H5E_printf_stack(ptr noundef @.str, ptr noundef @__func__.H5G__stab_iterate, i32 noundef 540, i64 noundef %207, i64 noundef %208, ptr noundef @.str.6)
  br label %210

210:                                              ; preds = %206
  store i8 1, ptr %17, align 1
  %211 = load i8, ptr %17, align 1
  %212 = trunc i8 %211 to i1
  %213 = zext i1 %212 to i8
  store i8 %213, ptr %17, align 1
  br label %214

214:                                              ; preds = %210
  store i32 -1, ptr %16, align 4
  br label %215

215:                                              ; preds = %214
  br label %216

216:                                              ; preds = %215, %199, %196
  %217 = getelementptr inbounds %struct.H5G_link_table_t, ptr %15, i32 0, i32 1
  %218 = load ptr, ptr %217, align 8
  %219 = icmp ne ptr %218, null
  br i1 %219, label %220, label %236

220:                                              ; preds = %216
  %221 = call i32 @H5G__link_release_table(ptr noundef %15)
  %222 = icmp slt i32 %221, 0
  br i1 %222, label %223, label %236

223:                                              ; preds = %220
  br label %224

224:                                              ; preds = %223
  br label %225

225:                                              ; preds = %224
  br label %226

226:                                              ; preds = %225
  %227 = load i64, ptr @H5E_SYM_g, align 8
  %228 = load i64, ptr @H5E_CANTFREE_g, align 8
  %229 = call i32 (ptr, ptr, i32, i64, i64, ptr, ...) @H5E_printf_stack(ptr noundef @.str, ptr noundef @__func__.H5G__stab_iterate, i32 noundef 542, i64 noundef %227, i64 noundef %228, ptr noundef @.str.22)
  br label %230

230:                                              ; preds = %226
  store i8 1, ptr %17, align 1
  %231 = load i8, ptr %17, align 1
  %232 = trunc i8 %231 to i1
  %233 = zext i1 %232 to i8
  store i8 %233, ptr %17, align 1
  br label %234

234:                                              ; preds = %230
  store i32 -1, ptr %16, align 4
  br label %235

235:                                              ; preds = %234
  br label %236

236:                                              ; preds = %235, %220, %216
  %237 = load i32, ptr %16, align 4
  ret i32 %237
}