; Function Attrs: nounwind uwtable
define i32 @H5G__stab_iterate(ptr noundef %0, i32 noundef %1, i64 noundef %2, ptr noundef %3, ptr noundef %4, ptr noundef %5) local_unnamed_addr #0 {
  %7 = alloca %struct.H5O_stab_t, align 8
  %8 = alloca %struct.H5G_link_table_t, align 8
  %9 = alloca %struct.H5G_bt_it_it_t, align 8
  %10 = alloca %struct.H5G_bt_it_bt_t, align 8
  call void @llvm.memset.p0.i64(ptr noundef nonnull align 8 dereferenceable(16) %8, i8 0, i64 16, i1 false)
  %11 = call ptr @H5O_msg_read(ptr noundef %0, i32 noundef 17, ptr noundef nonnull %7) #6
  %12 = icmp eq ptr %11, null
  br i1 %12, label %13, label %17

13:                                               ; preds = %6
  %14 = load i64, ptr @H5E_SYM_g, align 8
  %15 = load i64, ptr @H5E_NOTFOUND_g, align 8
  %16 = call i32 (ptr, ptr, i32, i64, i64, ptr, ...) @H5E_printf_stack(ptr noundef nonnull @.str, ptr noundef nonnull @__func__.H5G__stab_iterate, i32 noundef 485, i64 noundef %14, i64 noundef %15, ptr noundef nonnull @.str.16) #6
  br label %86

17:                                               ; preds = %6
  %18 = load ptr, ptr %0, align 8
  %19 = getelementptr inbounds i8, ptr %7, i64 8
  %20 = load i64, ptr %19, align 8
  %21 = call ptr @H5HL_protect(ptr noundef %18, i64 noundef %20, i32 noundef 128) #6
  %22 = icmp eq ptr %21, null
  br i1 %22, label %23, label %27

23:                                               ; preds = %17
  %24 = load i64, ptr @H5E_SYM_g, align 8
  %25 = load i64, ptr @H5E_PROTECT_g, align 8
  %26 = call i32 (ptr, ptr, i32, i64, i64, ptr, ...) @H5E_printf_stack(ptr noundef nonnull @.str, ptr noundef nonnull @__func__.H5G__stab_iterate, i32 noundef 489, i64 noundef %24, i64 noundef %25, ptr noundef nonnull @.str.3) #6
  br label %86

27:                                               ; preds = %17
  %.not = icmp eq i32 %1, 1
  br i1 %.not, label %48, label %28

28:                                               ; preds = %27
  store ptr %21, ptr %9, align 8
  %29 = getelementptr inbounds i8, ptr %9, i64 8
  store i64 %2, ptr %29, align 8
  %30 = getelementptr inbounds i8, ptr %9, i64 32
  store ptr %3, ptr %30, align 8
  %31 = getelementptr inbounds i8, ptr %9, i64 16
  store ptr %4, ptr %31, align 8
  %32 = getelementptr inbounds i8, ptr %9, i64 24
  store ptr %5, ptr %32, align 8
  %33 = load ptr, ptr %0, align 8
  %34 = load i64, ptr %7, align 8
  %35 = call i32 @H5B_iterate(ptr noundef %33, ptr noundef nonnull @H5B_SNODE, i64 noundef %34, ptr noundef nonnull @H5G__node_iterate, ptr noundef nonnull %9) #6
  %36 = icmp slt i32 %35, 0
  br i1 %36, label %37, label %41

37:                                               ; preds = %28
  %38 = load i64, ptr @H5E_SYM_g, align 8
  %39 = load i64, ptr @H5E_CANTNEXT_g, align 8
  %40 = call i32 (ptr, ptr, i32, i64, i64, ptr, ...) @H5E_printf_stack(ptr noundef nonnull @.str, ptr noundef nonnull @__func__.H5G__stab_iterate, i32 noundef 505, i64 noundef %38, i64 noundef %39, ptr noundef nonnull @.str.17) #6
  br label %41

41:                                               ; preds = %37, %28
  %.not41 = icmp eq i64 %2, 0
  br i1 %.not41, label %79, label %42

42:                                               ; preds = %41
  %43 = load i64, ptr %3, align 8
  %.not42 = icmp ugt i64 %43, %2
  br i1 %.not42, label %79, label %44

44:                                               ; preds = %42
  %45 = load i64, ptr @H5E_ARGS_g, align 8
  %46 = load i64, ptr @H5E_BADVALUE_g, align 8
  %47 = call i32 (ptr, ptr, i32, i64, i64, ptr, ...) @H5E_printf_stack(ptr noundef nonnull @.str, ptr noundef nonnull @__func__.H5G__stab_iterate, i32 noundef 510, i64 noundef %45, i64 noundef %46, ptr noundef nonnull @.str.18) #6
  br label %79

48:                                               ; preds = %27
  store i64 0, ptr %10, align 8
  %49 = getelementptr inbounds i8, ptr %10, i64 8
  store ptr %21, ptr %49, align 8
  %50 = getelementptr inbounds i8, ptr %10, i64 16
  store ptr %8, ptr %50, align 8
  %51 = load ptr, ptr %0, align 8
  %52 = load i64, ptr %7, align 8
  %53 = call i32 @H5B_iterate(ptr noundef %51, ptr noundef nonnull @H5B_SNODE, i64 noundef %52, ptr noundef nonnull @H5G__node_build_table, ptr noundef nonnull %10) #6
  %54 = icmp slt i32 %53, 0
  br i1 %54, label %55, label %59

55:                                               ; preds = %48
  %56 = load i64, ptr @H5E_SYM_g, align 8
  %57 = load i64, ptr @H5E_NOTFOUND_g, align 8
  %58 = call i32 (ptr, ptr, i32, i64, i64, ptr, ...) @H5E_printf_stack(ptr noundef nonnull @.str, ptr noundef nonnull @__func__.H5G__stab_iterate, i32 noundef 522, i64 noundef %56, i64 noundef %57, ptr noundef nonnull @.str.19) #6
  br label %79

59:                                               ; preds = %48
  %.not39 = icmp eq i64 %2, 0
  %60 = load i64, ptr %8, align 8
  %.not40 = icmp ugt i64 %60, %2
  %or.cond = select i1 %.not39, i1 true, i1 %.not40
  br i1 %or.cond, label %65, label %61

61:                                               ; preds = %59
  %62 = load i64, ptr @H5E_ARGS_g, align 8
  %63 = load i64, ptr @H5E_BADVALUE_g, align 8
  %64 = call i32 (ptr, ptr, i32, i64, i64, ptr, ...) @H5E_printf_stack(ptr noundef nonnull @.str, ptr noundef nonnull @__func__.H5G__stab_iterate, i32 noundef 526, i64 noundef %62, i64 noundef %63, ptr noundef nonnull @.str.20) #6
  br label %79

65:                                               ; preds = %59
  %66 = call i32 @H5G__link_sort_table(ptr noundef nonnull %8, i32 noundef 0, i32 noundef 1) #6
  %67 = icmp slt i32 %66, 0
  br i1 %67, label %68, label %72

68:                                               ; preds = %65
  %69 = load i64, ptr @H5E_SYM_g, align 8
  %70 = load i64, ptr @H5E_CANTSORT_g, align 8
  %71 = call i32 (ptr, ptr, i32, i64, i64, ptr, ...) @H5E_printf_stack(ptr noundef nonnull @.str, ptr noundef nonnull @__func__.H5G__stab_iterate, i32 noundef 530, i64 noundef %69, i64 noundef %70, ptr noundef nonnull @.str.21) #6
  br label %79

72:                                               ; preds = %65
  %73 = call i32 @H5G__link_iterate_table(ptr noundef nonnull %8, i64 noundef %2, ptr noundef %3, ptr noundef %4, ptr noundef %5) #6
  %74 = icmp slt i32 %73, 0
  br i1 %74, label %75, label %79

75:                                               ; preds = %72
  %76 = load i64, ptr @H5E_SYM_g, align 8
  %77 = load i64, ptr @H5E_CANTNEXT_g, align 8
  %78 = call i32 (ptr, ptr, i32, i64, i64, ptr, ...) @H5E_printf_stack(ptr noundef nonnull @.str, ptr noundef nonnull @__func__.H5G__stab_iterate, i32 noundef 534, i64 noundef %76, i64 noundef %77, ptr noundef nonnull @.str.17) #6
  br label %79

79:                                               ; preds = %44, %42, %41, %55, %61, %68, %75, %72
  %.0.ph = phi i32 [ %73, %72 ], [ %73, %75 ], [ -1, %68 ], [ -1, %61 ], [ -1, %55 ], [ %35, %41 ], [ %35, %42 ], [ -1, %44 ]
  %80 = call i32 @H5HL_unprotect(ptr noundef nonnull %21) #6
  %81 = icmp slt i32 %80, 0
  br i1 %81, label %82, label %86

82:                                               ; preds = %79
  %83 = load i64, ptr @H5E_SYM_g, align 8
  %84 = load i64, ptr @H5E_PROTECT_g, align 8
  %85 = call i32 (ptr, ptr, i32, i64, i64, ptr, ...) @H5E_printf_stack(ptr noundef nonnull @.str, ptr noundef nonnull @__func__.H5G__stab_iterate, i32 noundef 540, i64 noundef %83, i64 noundef %84, ptr noundef nonnull @.str.6) #6
  br label %86

86:                                               ; preds = %13, %23, %82, %79
  %.1 = phi i32 [ -1, %82 ], [ %.0.ph, %79 ], [ -1, %13 ], [ -1, %23 ]
  %87 = getelementptr inbounds i8, ptr %8, i64 8
  %88 = load ptr, ptr %87, align 8
  %.not44 = icmp eq ptr %88, null
  br i1 %.not44, label %96, label %89

89:                                               ; preds = %86
  %90 = call i32 @H5G__link_release_table(ptr noundef nonnull %8) #6
  %91 = icmp slt i32 %90, 0
  br i1 %91, label %92, label %96

92:                                               ; preds = %89
  %93 = load i64, ptr @H5E_SYM_g, align 8
  %94 = load i64, ptr @H5E_CANTFREE_g, align 8
  %95 = call i32 (ptr, ptr, i32, i64, i64, ptr, ...) @H5E_printf_stack(ptr noundef nonnull @.str, ptr noundef nonnull @__func__.H5G__stab_iterate, i32 noundef 542, i64 noundef %93, i64 noundef %94, ptr noundef nonnull @.str.22) #6
  br label %96

96:                                               ; preds = %92, %89, %86
  %.2 = phi i32 [ -1, %92 ], [ %.1, %89 ], [ %.1, %86 ]
  ret i32 %.2
}